; Function Attrs: mustprogress uwtable
define void @_ZN6icu_779VTZWriter5writeEDs(ptr noundef nonnull readonly align 8 captures(none) dereferenceable(8) %0, i16 noundef zeroext %1) local_unnamed_addr #2 align 2 {
  %3 = alloca i16, align 2
  %4 = load ptr, ptr %0, align 8, !tbaa !3
  call void @llvm.lifetime.start.p0(i64 2, ptr nonnull %3)
  store i16 %1, ptr %3, align 2, !tbaa !10
  %5 = call noundef nonnull align 8 dereferenceable(64) ptr @_ZN6icu_7713UnicodeString8doAppendEPKDsii(ptr noundef nonnull align 8 dereferenceable(64) %4, ptr noundef nonnull %3, i32 noundef 0, i32 noundef 1)
  call void @llvm.lifetime.end.p0(i64 2, ptr nonnull %3)
  ret void
}